target datalayout = "e-m:e-p270:32:32-p271:32:32-p272:64:64-i64:64-i128:128-f80:128-n8:16:32:64-S128"
target triple = "x86_64-pc-linux-gnu"

@orig_pmeth = internal global ptr null, align 8

; Function Attrs: nounwind uwtable
define internal void @custom_pmeth_cleanup(ptr noundef %0) #0 {
  %2 = alloca ptr, align 8
  %3 = alloca ptr, align 8
  store ptr %0, ptr %2, align 8, !tbaa !29
  call void @llvm.lifetime.start.p0(i64 8, ptr %3) #8
  %4 = load ptr, ptr @orig_pmeth, align 8, !tbaa !17
  call void @EVP_PKEY_meth_get_cleanup(ptr noundef %4, ptr noundef %3)
  %5 = load ptr, ptr %3, align 8, !tbaa !54
  %6 = load ptr, ptr %2, align 8, !tbaa !29
  call void %5(ptr noundef %6)
  call void @llvm.lifetime.end.p0(i64 8, ptr %3) #8
  ret void
}