; Function Attrs: nounwind uwtable
define internal void @custom_pmeth_cleanup(ptr noundef %0) #1 {
  %2 = alloca ptr, align 8
  call void @llvm.lifetime.start.p0(i64 8, ptr nonnull %2) #9
  %3 = load ptr, ptr @orig_pmeth, align 8, !tbaa !13
  call void @EVP_PKEY_meth_get_cleanup(ptr noundef %3, ptr noundef nonnull %2) #9
  %4 = load ptr, ptr %2, align 8, !tbaa !34
  call void %4(ptr noundef %0) #9
  call void @llvm.lifetime.end.p0(i64 8, ptr nonnull %2) #9
  ret void
}